target datalayout = "e-m:e-p270:32:32-p271:32:32-p272:64:64-i64:64-i128:128-f80:128-n8:16:32:64-S128"
target triple = "x86_64-pc-linux-gnu"

%struct._generic_SUNAdaptController = type { ptr, ptr, ptr }
%struct._generic_SUNAdaptController_Ops = type { ptr, ptr, ptr, ptr, ptr, ptr, ptr, ptr, ptr, ptr, ptr }
%struct._ARKUserControlContent = type { double, double, double, double, ptr, ptr, ptr }

; Function Attrs: nounwind uwtable
define i32 @SUNAdaptController_Reset_ARKUserControl(ptr noundef %0) #0 {
  %2 = alloca ptr, align 8
  store ptr %0, ptr %2, align 8, !tbaa !9
  %3 = load ptr, ptr %2, align 8, !tbaa !9
  %4 = getelementptr inbounds nuw %struct._generic_SUNAdaptController, ptr %3, i32 0, i32 0
  %5 = load ptr, ptr %4, align 8, !tbaa !23
  %6 = getelementptr inbounds nuw %struct._ARKUserControlContent, ptr %5, i32 0, i32 2
  store double 1.000000e+00, ptr %6, align 8, !tbaa !47
  %7 = load ptr, ptr %2, align 8, !tbaa !9
  %8 = getelementptr inbounds nuw %struct._generic_SUNAdaptController, ptr %7, i32 0, i32 0
  %9 = load ptr, ptr %8, align 8, !tbaa !23
  %10 = getelementptr inbounds nuw %struct._ARKUserControlContent, ptr %9, i32 0, i32 3
  store double 1.000000e+00, ptr %10, align 8, !tbaa !48
  %11 = load ptr, ptr %2, align 8, !tbaa !9
  %12 = getelementptr inbounds nuw %struct._generic_SUNAdaptController, ptr %11, i32 0, i32 0
  %13 = load ptr, ptr %12, align 8, !tbaa !23
  %14 = getelementptr inbounds nuw %struct._ARKUserControlContent, ptr %13, i32 0, i32 0
  store double 0.000000e+00, ptr %14, align 8, !tbaa !45
  %15 = load ptr, ptr %2, align 8, !tbaa !9
  %16 = getelementptr inbounds nuw %struct._generic_SUNAdaptController, ptr %15, i32 0, i32 0
  %17 = load ptr, ptr %16, align 8, !tbaa !23
  %18 = getelementptr inbounds nuw %struct._ARKUserControlContent, ptr %17, i32 0, i32 1
  store double 0.000000e+00, ptr %18, align 8, !tbaa !46
  ret i32 0
}

; Function Attrs: nounwind uwtable
define ptr @ARKUserControl(ptr noundef %0, ptr noundef %1, ptr noundef %2, ptr noundef %3) #0 {
  %5 = alloca ptr, align 8
  %6 = alloca ptr, align 8
  %7 = alloca ptr, align 8
  %8 = alloca ptr, align 8
  %9 = alloca ptr, align 8
  %10 = alloca ptr, align 8
  %11 = alloca ptr, align 8
  %12 = alloca i32, align 4
  store ptr %0, ptr %6, align 8, !tbaa !3
  store ptr %1, ptr %7, align 8, !tbaa !8
  store ptr %2, ptr %8, align 8, !tbaa !8
  store ptr %3, ptr %9, align 8, !tbaa !8
  call void @llvm.lifetime.start.p0(i64 8, ptr %10) #5
  call void @llvm.lifetime.start.p0(i64 8, ptr %11) #5
  %13 = load ptr, ptr %8, align 8, !tbaa !8
  %14 = icmp eq ptr %13, null
  br i1 %14, label %21, label %15

15:                                               ; preds = %4
  %16 = load ptr, ptr %7, align 8, !tbaa !8
  %17 = icmp eq ptr %16, null
  br i1 %17, label %21, label %18

18:                                               ; preds = %15
  %19 = load ptr, ptr %6, align 8, !tbaa !3
  %20 = icmp eq ptr %19, null
  br i1 %20, label %21, label %22

21:                                               ; preds = %18, %15, %4
  store ptr null, ptr %5, align 8
  store i32 1, ptr %12, align 4
  br label %75

22:                                               ; preds = %18
  store ptr null, ptr %10, align 8, !tbaa !9
  %23 = load ptr, ptr %6, align 8, !tbaa !3
  %24 = call ptr @SUNAdaptController_NewEmpty(ptr noundef %23)
  store ptr %24, ptr %10, align 8, !tbaa !9
  %25 = load ptr, ptr %10, align 8, !tbaa !9
  %26 = icmp eq ptr %25, null
  br i1 %26, label %27, label %28

27:                                               ; preds = %22
  store ptr null, ptr %5, align 8
  store i32 1, ptr %12, align 4
  br label %75

28:                                               ; preds = %22
  %29 = load ptr, ptr %10, align 8, !tbaa !9
  %30 = getelementptr inbounds nuw %struct._generic_SUNAdaptController, ptr %29, i32 0, i32 1
  %31 = load ptr, ptr %30, align 8, !tbaa !11
  %32 = getelementptr inbounds nuw %struct._generic_SUNAdaptController_Ops, ptr %31, i32 0, i32 0
  store ptr @SUNAdaptController_GetType_ARKUserControl, ptr %32, align 8, !tbaa !14
  %33 = load ptr, ptr %10, align 8, !tbaa !9
  %34 = getelementptr inbounds nuw %struct._generic_SUNAdaptController, ptr %33, i32 0, i32 1
  %35 = load ptr, ptr %34, align 8, !tbaa !11
  %36 = getelementptr inbounds nuw %struct._generic_SUNAdaptController_Ops, ptr %35, i32 0, i32 1
  store ptr @SUNAdaptController_EstimateStep_ARKUserControl, ptr %36, align 8, !tbaa !16
  %37 = load ptr, ptr %10, align 8, !tbaa !9
  %38 = getelementptr inbounds nuw %struct._generic_SUNAdaptController, ptr %37, i32 0, i32 1
  %39 = load ptr, ptr %38, align 8, !tbaa !11
  %40 = getelementptr inbounds nuw %struct._generic_SUNAdaptController_Ops, ptr %39, i32 0, i32 4
  store ptr @SUNAdaptController_Reset_ARKUserControl, ptr %40, align 8, !tbaa !17
  %41 = load ptr, ptr %10, align 8, !tbaa !9
  %42 = getelementptr inbounds nuw %struct._generic_SUNAdaptController, ptr %41, i32 0, i32 1
  %43 = load ptr, ptr %42, align 8, !tbaa !11
  %44 = getelementptr inbounds nuw %struct._generic_SUNAdaptController_Ops, ptr %43, i32 0, i32 6
  store ptr @SUNAdaptController_Write_ARKUserControl, ptr %44, align 8, !tbaa !18
  %45 = load ptr, ptr %10, align 8, !tbaa !9
  %46 = getelementptr inbounds nuw %struct._generic_SUNAdaptController, ptr %45, i32 0, i32 1
  %47 = load ptr, ptr %46, align 8, !tbaa !11
  %48 = getelementptr inbounds nuw %struct._generic_SUNAdaptController_Ops, ptr %47, i32 0, i32 8
  store ptr @SUNAdaptController_UpdateH_ARKUserControl, ptr %48, align 8, !tbaa !19
  %49 = load ptr, ptr %10, align 8, !tbaa !9
  %50 = getelementptr inbounds nuw %struct._generic_SUNAdaptController, ptr %49, i32 0, i32 1
  %51 = load ptr, ptr %50, align 8, !tbaa !11
  %52 = getelementptr inbounds nuw %struct._generic_SUNAdaptController_Ops, ptr %51, i32 0, i32 10
  store ptr @SUNAdaptController_Space_ARKUserControl, ptr %52, align 8, !tbaa !20
  store ptr null, ptr %11, align 8, !tbaa !21
  %53 = call noalias ptr @malloc(i64 noundef 56) #6
  store ptr %53, ptr %11, align 8, !tbaa !21
  %54 = load ptr, ptr %11, align 8, !tbaa !21
  %55 = icmp eq ptr %54, null
  br i1 %55, label %56, label %59

56:                                               ; preds = %28
  %57 = load ptr, ptr %10, align 8, !tbaa !9
  %58 = call i32 @SUNAdaptController_Destroy(ptr noundef %57)
  store ptr null, ptr %5, align 8
  store i32 1, ptr %12, align 4
  br label %75

59:                                               ; preds = %28
  %60 = load ptr, ptr %11, align 8, !tbaa !21
  %61 = load ptr, ptr %10, align 8, !tbaa !9
  %62 = getelementptr inbounds nuw %struct._generic_SUNAdaptController, ptr %61, i32 0, i32 0
  store ptr %60, ptr %62, align 8, !tbaa !23
  %63 = load ptr, ptr %7, align 8, !tbaa !8
  %64 = load ptr, ptr %11, align 8, !tbaa !21
  %65 = getelementptr inbounds nuw %struct._ARKUserControlContent, ptr %64, i32 0, i32 4
  store ptr %63, ptr %65, align 8, !tbaa !24
  %66 = load ptr, ptr %8, align 8, !tbaa !8
  %67 = load ptr, ptr %11, align 8, !tbaa !21
  %68 = getelementptr inbounds nuw %struct._ARKUserControlContent, ptr %67, i32 0, i32 5
  store ptr %66, ptr %68, align 8, !tbaa !28
  %69 = load ptr, ptr %9, align 8, !tbaa !8
  %70 = load ptr, ptr %11, align 8, !tbaa !21
  %71 = getelementptr inbounds nuw %struct._ARKUserControlContent, ptr %70, i32 0, i32 6
  store ptr %69, ptr %71, align 8, !tbaa !29
  %72 = load ptr, ptr %10, align 8, !tbaa !9
  %73 = call i32 @SUNAdaptController_Reset_ARKUserControl(ptr noundef %72)
  %74 = load ptr, ptr %10, align 8, !tbaa !9
  store ptr %74, ptr %5, align 8
  store i32 1, ptr %12, align 4
  br label %75

75:                                               ; preds = %59, %56, %27, %21
  call void @llvm.lifetime.end.p0(i64 8, ptr %11) #5
  call void @llvm.lifetime.end.p0(i64 8, ptr %10) #5
  %76 = load ptr, ptr %5, align 8
  ret ptr %76
}