; Function Attrs: nounwind uwtable
define ptr @ARKUserControl(ptr noundef %0, ptr noundef %1, ptr noundef %2, ptr noundef %3) local_unnamed_addr #0 {
  %5 = icmp eq ptr %2, null
  %6 = icmp eq ptr %1, null
  %or.cond = or i1 %6, %5
  %7 = icmp eq ptr %0, null
  %or.cond3 = or i1 %7, %or.cond
  br i1 %or.cond3, label %29, label %8

8:                                                ; preds = %4
  %9 = tail call ptr @SUNAdaptController_NewEmpty(ptr noundef nonnull %0) #11
  %10 = icmp eq ptr %9, null
  br i1 %10, label %29, label %11

11:                                               ; preds = %8
  %12 = getelementptr inbounds nuw i8, ptr %9, i64 8
  %13 = load ptr, ptr %12, align 8, !tbaa !3
  store ptr @SUNAdaptController_GetType_ARKUserControl, ptr %13, align 8, !tbaa !10
  %14 = getelementptr inbounds nuw i8, ptr %13, i64 8
  store ptr @SUNAdaptController_EstimateStep_ARKUserControl, ptr %14, align 8, !tbaa !12
  %15 = getelementptr inbounds nuw i8, ptr %13, i64 32
  store ptr @SUNAdaptController_Reset_ARKUserControl, ptr %15, align 8, !tbaa !13
  %16 = getelementptr inbounds nuw i8, ptr %13, i64 48
  store ptr @SUNAdaptController_Write_ARKUserControl, ptr %16, align 8, !tbaa !14
  %17 = getelementptr inbounds nuw i8, ptr %13, i64 64
  store ptr @SUNAdaptController_UpdateH_ARKUserControl, ptr %17, align 8, !tbaa !15
  %18 = getelementptr inbounds nuw i8, ptr %13, i64 80
  store ptr @SUNAdaptController_Space_ARKUserControl, ptr %18, align 8, !tbaa !16
  %19 = tail call noalias dereferenceable_or_null(56) ptr @malloc(i64 noundef 56) #12
  %20 = icmp eq ptr %19, null
  br i1 %20, label %21, label %23

21:                                               ; preds = %11
  %22 = tail call i32 @SUNAdaptController_Destroy(ptr noundef nonnull %9) #11
  br label %29

23:                                               ; preds = %11
  store ptr %19, ptr %9, align 8, !tbaa !17
  %24 = getelementptr inbounds nuw i8, ptr %19, i64 32
  store ptr %1, ptr %24, align 8, !tbaa !18
  %25 = getelementptr inbounds nuw i8, ptr %19, i64 40
  store ptr %2, ptr %25, align 8, !tbaa !22
  %26 = getelementptr inbounds nuw i8, ptr %19, i64 48
  store ptr %3, ptr %26, align 8, !tbaa !23
  %27 = getelementptr inbounds nuw i8, ptr %19, i64 16
  store double 1.000000e+00, ptr %27, align 8, !tbaa !24
  %28 = getelementptr inbounds nuw i8, ptr %19, i64 24
  store double 1.000000e+00, ptr %28, align 8, !tbaa !25
  tail call void @llvm.memset.p0.i64(ptr noundef nonnull align 8 dereferenceable(16) %19, i8 0, i64 16, i1 false)
  br label %29

29:                                               ; preds = %8, %4, %23, %21
  %.0 = phi ptr [ null, %21 ], [ %9, %23 ], [ null, %4 ], [ null, %8 ]
  ret ptr %.0
}